target datalayout = "e-m:e-p270:32:32-p271:32:32-p272:64:64-i64:64-i128:128-f80:128-n8:16:32:64-S128"
target triple = "x86_64-pc-linux-gnu"

%struct.H5CX_node_t = type { %struct.H5CX_t, ptr }
%struct.H5CX_t = type { i64, ptr, i64, ptr, i64, ptr, i64, ptr, i64, ptr, i64, ptr, i64, i32, i64, i8, ptr, i8, ptr, i8, i32, i8, [3 x double], i8, i64, i8, i32, i8, %struct.H5Z_cb_t, i8, ptr, i8, %struct.H5T_vlen_alloc_info_t, i8, %struct.H5T_conv_cb_t, i8, i32, i8, i8, i8, i32, i8, i8, i32, i8, i8, i32, i8, i32, i8, i64, i8, i8, i8, i8, i8, ptr, i8, ptr, i8, i32, i8, i32, i8, %struct.H5VL_connector_prop_t, i8, ptr, i8 }
%struct.H5Z_cb_t = type { ptr, ptr }
%struct.H5T_vlen_alloc_info_t = type { ptr, ptr, ptr, ptr }
%struct.H5T_conv_cb_t = type { ptr, ptr }
%struct.H5VL_connector_prop_t = type { ptr, ptr }
%struct.H5O_pline_t = type { %struct.H5O_shared_t, i32, i64, i64, ptr }
%struct.H5O_shared_t = type { i32, ptr, i32, %union.anon }
%union.anon = type { %struct.H5O_mesg_loc_t }
%struct.H5O_mesg_loc_t = type { i32, i64 }

@H5P_CLS_OBJECT_CREATE_ID_g = external global i64, align 8
@H5_libinit_g = external global i8, align 1
@H5_libterm_g = external global i8, align 1
@.str.1 = private unnamed_addr constant [101 x i8] c"generated/home/dtcxzyw/WorkSpace/Projects/compilers/llvm-opt-benchmark/bench/hdf5/hdf5/src/H5Pocpl.c\00", align 1
@H5E_FUNC_g = external global i64, align 8
@H5E_CANTINIT_g = external global i64, align 8
@.str.2 = private unnamed_addr constant [30 x i8] c"library initialization failed\00", align 1
@H5P_init_g = external global i8, align 1
@.str.3 = private unnamed_addr constant [32 x i8] c"interface initialization failed\00", align 1
@H5E_CANTSET_g = external global i64, align 8
@.str.4 = private unnamed_addr constant [22 x i8] c"can't set API context\00", align 1
@H5E_ID_g = external global i64, align 8
@H5E_BADID_g = external global i64, align 8
@.str.8 = private unnamed_addr constant [25 x i8] c"can't find object for ID\00", align 1
@H5E_PLIST_g = external global i64, align 8
@H5E_CANTGET_g = external global i64, align 8
@.str.19 = private unnamed_addr constant [6 x i8] c"pline\00", align 1
@.str.20 = private unnamed_addr constant [19 x i8] c"can't get pipeline\00", align 1
@__func__.H5Pall_filters_avail = private unnamed_addr constant [21 x i8] c"H5Pall_filters_avail\00", align 1
@H5E_NOTFOUND_g = external global i64, align 8
@.str.34 = private unnamed_addr constant [33 x i8] c"can't check pipeline information\00", align 1

; Function Attrs: nounwind uwtable
define i32 @H5Pall_filters_avail(i64 noundef %0) #0 {
  %2 = alloca i64, align 8
  %3 = alloca ptr, align 8
  %4 = alloca %struct.H5O_pline_t, align 8
  %5 = alloca i32, align 4
  %6 = alloca %struct.H5CX_node_t, align 8
  %7 = alloca i8, align 1
  %8 = alloca i8, align 1
  store i64 %0, ptr %2, align 8, !tbaa !14
  call void @llvm.lifetime.start.p0(i64 8, ptr %3) #10
  call void @llvm.lifetime.start.p0(i64 72, ptr %4) #10
  call void @llvm.lifetime.start.p0(i64 4, ptr %5) #10
  call void @llvm.lifetime.start.p0(i64 480, ptr %6) #10
  call void @llvm.memset.p0.i64(ptr align 8 %6, i8 0, i64 480, i1 false)
  call void @llvm.lifetime.start.p0(i64 1, ptr %7) #10
  store i8 0, ptr %7, align 1, !tbaa !10
  call void @llvm.lifetime.start.p0(i64 1, ptr %8) #10
  store i8 0, ptr %8, align 1, !tbaa !10
  br label %9

9:                                                ; preds = %1
  %10 = load i8, ptr @H5_libinit_g, align 1, !tbaa !10, !range !12, !noundef !13
  %11 = trunc i8 %10 to i1
  br i1 %11, label %16, label %12

12:                                               ; preds = %9
  %13 = load i8, ptr @H5_libterm_g, align 1, !tbaa !10, !range !12, !noundef !13
  %14 = trunc i8 %13 to i1
  %15 = xor i1 %14, true
  br label %16

16:                                               ; preds = %12, %9
  %17 = phi i1 [ false, %9 ], [ %15, %12 ]
  %18 = xor i1 %17, true
  %19 = xor i1 %18, true
  %20 = zext i1 %19 to i32
  %21 = sext i32 %20 to i64
  %22 = call i64 @llvm.expect.i64(i64 %21, i64 0)
  %23 = icmp ne i64 %22, 0
  br i1 %23, label %24, label %53

24:                                               ; preds = %16
  %25 = call i32 @H5_init_library()
  %26 = icmp slt i32 %25, 0
  %27 = xor i1 %26, true
  %28 = xor i1 %27, true
  %29 = zext i1 %28 to i32
  %30 = sext i32 %29 to i64
  %31 = call i64 @llvm.expect.i64(i64 %30, i64 0)
  %32 = icmp ne i64 %31, 0
  br i1 %32, label %33, label %52

33:                                               ; preds = %24
  br label %34

34:                                               ; preds = %33
  br label %35

35:                                               ; preds = %34
  br label %36

36:                                               ; preds = %35
  %37 = load i64, ptr @H5E_FUNC_g, align 8, !tbaa !14
  %38 = load i64, ptr @H5E_CANTINIT_g, align 8, !tbaa !14
  %39 = call i32 (ptr, ptr, i32, i64, i64, ptr, ...) @H5E_printf_stack(ptr noundef @.str.1, ptr noundef @__func__.H5Pall_filters_avail, i32 noundef 936, i64 noundef %37, i64 noundef %38, ptr noundef @.str.2)
  br label %40

40:                                               ; preds = %36
  br label %41

41:                                               ; preds = %40
  store i8 1, ptr %8, align 1, !tbaa !10
  %42 = load i8, ptr %8, align 1, !tbaa !10, !range !12, !noundef !13
  %43 = trunc i8 %42 to i1
  %44 = zext i1 %43 to i8
  store i8 %44, ptr %8, align 1, !tbaa !10
  br label %45

45:                                               ; preds = %41
  br label %46

46:                                               ; preds = %45
  br label %47

47:                                               ; preds = %46
  store i32 -1, ptr %5, align 4, !tbaa !8
  br label %196

48:                                               ; No predecessors!
  br label %49

49:                                               ; preds = %48
  br label %50

50:                                               ; preds = %49
  br label %51

51:                                               ; preds = %50
  br label %52

52:                                               ; preds = %51, %24
  br label %53

53:                                               ; preds = %52, %16
  %54 = load i8, ptr @H5P_init_g, align 1, !tbaa !10, !range !12, !noundef !13
  %55 = trunc i8 %54 to i1
  br i1 %55, label %60, label %56

56:                                               ; preds = %53
  %57 = load i8, ptr @H5_libterm_g, align 1, !tbaa !10, !range !12, !noundef !13
  %58 = trunc i8 %57 to i1
  %59 = xor i1 %58, true
  br label %60

60:                                               ; preds = %56, %53
  %61 = phi i1 [ false, %53 ], [ %59, %56 ]
  %62 = xor i1 %61, true
  %63 = xor i1 %62, true
  %64 = zext i1 %63 to i32
  %65 = sext i32 %64 to i64
  %66 = call i64 @llvm.expect.i64(i64 %65, i64 0)
  %67 = icmp ne i64 %66, 0
  br i1 %67, label %68, label %91

68:                                               ; preds = %60
  store i8 1, ptr @H5P_init_g, align 1, !tbaa !10
  %69 = call i32 @H5P__init_package()
  %70 = icmp slt i32 %69, 0
  br i1 %70, label %71, label %90

71:                                               ; preds = %68
  store i8 0, ptr @H5P_init_g, align 1, !tbaa !10
  br label %72

72:                                               ; preds = %71
  br label %73

73:                                               ; preds = %72
  br label %74

74:                                               ; preds = %73
  %75 = load i64, ptr @H5E_FUNC_g, align 8, !tbaa !14
  %76 = load i64, ptr @H5E_CANTINIT_g, align 8, !tbaa !14
  %77 = call i32 (ptr, ptr, i32, i64, i64, ptr, ...) @H5E_printf_stack(ptr noundef @.str.1, ptr noundef @__func__.H5Pall_filters_avail, i32 noundef 936, i64 noundef %75, i64 noundef %76, ptr noundef @.str.3)
  br label %78

78:                                               ; preds = %74
  br label %79

79:                                               ; preds = %78
  store i8 1, ptr %8, align 1, !tbaa !10
  %80 = load i8, ptr %8, align 1, !tbaa !10, !range !12, !noundef !13
  %81 = trunc i8 %80 to i1
  %82 = zext i1 %81 to i8
  store i8 %82, ptr %8, align 1, !tbaa !10
  br label %83

83:                                               ; preds = %79
  br label %84

84:                                               ; preds = %83
  br label %85

85:                                               ; preds = %84
  store i32 -1, ptr %5, align 4, !tbaa !8
  br label %196

86:                                               ; No predecessors!
  br label %87

87:                                               ; preds = %86
  br label %88

88:                                               ; preds = %87
  br label %89

89:                                               ; preds = %88
  br label %90

90:                                               ; preds = %89, %68
  br label %91

91:                                               ; preds = %90, %60
  br label %92

92:                                               ; preds = %91
  br label %93

93:                                               ; preds = %92
  br label %94

94:                                               ; preds = %93
  %95 = call i32 @H5CX_push(ptr noundef %6)
  %96 = icmp slt i32 %95, 0
  %97 = xor i1 %96, true
  %98 = xor i1 %97, true
  %99 = zext i1 %98 to i32
  %100 = sext i32 %99 to i64
  %101 = call i64 @llvm.expect.i64(i64 %100, i64 0)
  %102 = icmp ne i64 %101, 0
  br i1 %102, label %103, label %122

103:                                              ; preds = %94
  br label %104

104:                                              ; preds = %103
  br label %105

105:                                              ; preds = %104
  br label %106

106:                                              ; preds = %105
  %107 = load i64, ptr @H5E_FUNC_g, align 8, !tbaa !14
  %108 = load i64, ptr @H5E_CANTSET_g, align 8, !tbaa !14
  %109 = call i32 (ptr, ptr, i32, i64, i64, ptr, ...) @H5E_printf_stack(ptr noundef @.str.1, ptr noundef @__func__.H5Pall_filters_avail, i32 noundef 936, i64 noundef %107, i64 noundef %108, ptr noundef @.str.4)
  br label %110

110:                                              ; preds = %106
  br label %111

111:                                              ; preds = %110
  store i8 1, ptr %8, align 1, !tbaa !10
  %112 = load i8, ptr %8, align 1, !tbaa !10, !range !12, !noundef !13
  %113 = trunc i8 %112 to i1
  %114 = zext i1 %113 to i8
  store i8 %114, ptr %8, align 1, !tbaa !10
  br label %115

115:                                              ; preds = %111
  br label %116

116:                                              ; preds = %115
  br label %117

117:                                              ; preds = %116
  store i32 -1, ptr %5, align 4, !tbaa !8
  br label %196

118:                                              ; No predecessors!
  br label %119

119:                                              ; preds = %118
  br label %120

120:                                              ; preds = %119
  br label %121

121:                                              ; preds = %120
  br label %123

122:                                              ; preds = %94
  store i8 1, ptr %7, align 1, !tbaa !10
  br label %123

123:                                              ; preds = %122, %121
  br label %124

124:                                              ; preds = %123
  br label %125

125:                                              ; preds = %124
  %126 = call i32 @H5E_clear_stack()
  %127 = load i64, ptr %2, align 8, !tbaa !14
  %128 = load i64, ptr @H5P_CLS_OBJECT_CREATE_ID_g, align 8, !tbaa !14
  %129 = call ptr @H5P_object_verify(i64 noundef %127, i64 noundef %128, i1 noundef zeroext true)
  store ptr %129, ptr %3, align 8, !tbaa !16
  %130 = icmp eq ptr null, %129
  br i1 %130, label %131, label %150

131:                                              ; preds = %125
  br label %132

132:                                              ; preds = %131
  br label %133

133:                                              ; preds = %132
  br label %134

134:                                              ; preds = %133
  %135 = load i64, ptr @H5E_ID_g, align 8, !tbaa !14
  %136 = load i64, ptr @H5E_BADID_g, align 8, !tbaa !14
  %137 = call i32 (ptr, ptr, i32, i64, i64, ptr, ...) @H5E_printf_stack(ptr noundef @.str.1, ptr noundef @__func__.H5Pall_filters_avail, i32 noundef 940, i64 noundef %135, i64 noundef %136, ptr noundef @.str.8)
  br label %138

138:                                              ; preds = %134
  br label %139

139:                                              ; preds = %138
  store i8 1, ptr %8, align 1, !tbaa !10
  %140 = load i8, ptr %8, align 1, !tbaa !10, !range !12, !noundef !13
  %141 = trunc i8 %140 to i1
  %142 = zext i1 %141 to i8
  store i8 %142, ptr %8, align 1, !tbaa !10
  br label %143

143:                                              ; preds = %139
  br label %144

144:                                              ; preds = %143
  br label %145

145:                                              ; preds = %144
  store i32 -1, ptr %5, align 4, !tbaa !8
  br label %196

146:                                              ; No predecessors!
  br label %147

147:                                              ; preds = %146
  br label %148

148:                                              ; preds = %147
  br label %149

149:                                              ; preds = %148
  br label %150

150:                                              ; preds = %149, %125
  %151 = load ptr, ptr %3, align 8, !tbaa !16
  %152 = call i32 @H5P_peek(ptr noundef %151, ptr noundef @.str.19, ptr noundef %4)
  %153 = icmp slt i32 %152, 0
  br i1 %153, label %154, label %173

154:                                              ; preds = %150
  br label %155

155:                                              ; preds = %154
  br label %156

156:                                              ; preds = %155
  br label %157

157:                                              ; preds = %156
  %158 = load i64, ptr @H5E_PLIST_g, align 8, !tbaa !14
  %159 = load i64, ptr @H5E_CANTGET_g, align 8, !tbaa !14
  %160 = call i32 (ptr, ptr, i32, i64, i64, ptr, ...) @H5E_printf_stack(ptr noundef @.str.1, ptr noundef @__func__.H5Pall_filters_avail, i32 noundef 944, i64 noundef %158, i64 noundef %159, ptr noundef @.str.20)
  br label %161

161:                                              ; preds = %157
  br label %162

162:                                              ; preds = %161
  store i8 1, ptr %8, align 1, !tbaa !10
  %163 = load i8, ptr %8, align 1, !tbaa !10, !range !12, !noundef !13
  %164 = trunc i8 %163 to i1
  %165 = zext i1 %164 to i8
  store i8 %165, ptr %8, align 1, !tbaa !10
  br label %166

166:                                              ; preds = %162
  br label %167

167:                                              ; preds = %166
  br label %168

168:                                              ; preds = %167
  store i32 -1, ptr %5, align 4, !tbaa !8
  br label %196

169:                                              ; No predecessors!
  br label %170

170:                                              ; preds = %169
  br label %171

171:                                              ; preds = %170
  br label %172

172:                                              ; preds = %171
  br label %173

173:                                              ; preds = %172, %150
  %174 = call i32 @H5Z_all_filters_avail(ptr noundef %4)
  store i32 %174, ptr %5, align 4, !tbaa !8
  %175 = icmp slt i32 %174, 0
  br i1 %175, label %176, label %195

176:                                              ; preds = %173
  br label %177

177:                                              ; preds = %176
  br label %178

178:                                              ; preds = %177
  br label %179

179:                                              ; preds = %178
  %180 = load i64, ptr @H5E_PLIST_g, align 8, !tbaa !14
  %181 = load i64, ptr @H5E_NOTFOUND_g, align 8, !tbaa !14
  %182 = call i32 (ptr, ptr, i32, i64, i64, ptr, ...) @H5E_printf_stack(ptr noundef @.str.1, ptr noundef @__func__.H5Pall_filters_avail, i32 noundef 948, i64 noundef %180, i64 noundef %181, ptr noundef @.str.34)
  br label %183

183:                                              ; preds = %179
  br label %184

184:                                              ; preds = %183
  store i8 1, ptr %8, align 1, !tbaa !10
  %185 = load i8, ptr %8, align 1, !tbaa !10, !range !12, !noundef !13
  %186 = trunc i8 %185 to i1
  %187 = zext i1 %186 to i8
  store i8 %187, ptr %8, align 1, !tbaa !10
  br label %188

188:                                              ; preds = %184
  br label %189

189:                                              ; preds = %188
  br label %190

190:                                              ; preds = %189
  store i32 -1, ptr %5, align 4, !tbaa !8
  br label %196

191:                                              ; No predecessors!
  br label %192

192:                                              ; preds = %191
  br label %193

193:                                              ; preds = %192
  br label %194

194:                                              ; preds = %193
  br label %195

195:                                              ; preds = %194, %173
  br label %196

196:                                              ; preds = %195, %190, %168, %145, %117, %85, %47
  %197 = load i8, ptr %7, align 1, !tbaa !10, !range !12, !noundef !13
  %198 = trunc i8 %197 to i1
  %199 = xor i1 %198, true
  %200 = xor i1 %199, true
  %201 = zext i1 %200 to i32
  %202 = sext i32 %201 to i64
  %203 = call i64 @llvm.expect.i64(i64 %202, i64 1)
  %204 = icmp ne i64 %203, 0
  br i1 %204, label %205, label %207

205:                                              ; preds = %196
  %206 = call i32 @H5CX_pop(i1 noundef zeroext true)
  store i8 0, ptr %7, align 1, !tbaa !10
  br label %207

207:                                              ; preds = %205, %196
  %208 = load i8, ptr %8, align 1, !tbaa !10, !range !12, !noundef !13
  %209 = trunc i8 %208 to i1
  %210 = xor i1 %209, true
  %211 = xor i1 %210, true
  %212 = zext i1 %211 to i32
  %213 = sext i32 %212 to i64
  %214 = call i64 @llvm.expect.i64(i64 %213, i64 0)
  %215 = icmp ne i64 %214, 0
  br i1 %215, label %216, label %218

216:                                              ; preds = %207
  %217 = call i32 @H5E_dump_api_stack()
  br label %218

218:                                              ; preds = %216, %207
  %219 = load i32, ptr %5, align 4, !tbaa !8
  call void @llvm.lifetime.end.p0(i64 1, ptr %8) #10
  call void @llvm.lifetime.end.p0(i64 1, ptr %7) #10
  call void @llvm.lifetime.end.p0(i64 480, ptr %6) #10
  call void @llvm.lifetime.end.p0(i64 4, ptr %5) #10
  call void @llvm.lifetime.end.p0(i64 72, ptr %4) #10
  call void @llvm.lifetime.end.p0(i64 8, ptr %3) #10
  ret i32 %219
}